; Function Attrs: mustprogress uwtable
define void @_ZN2cv4UMatC2EiiiRKNS_7Scalar_IdEENS_14UMatUsageFlagsE(ptr noundef nonnull align 8 dereferenceable(80) initializes((0, 28), (32, 48)) %0, i32 noundef %1, i32 noundef %2, i32 noundef %3, ptr noundef nonnull align 8 dereferenceable(32) %4, i32 noundef %5) unnamed_addr #4 align 2 personality ptr @__gxx_personality_v0 {
  %7 = alloca %"class.cv::_InputArray", align 8
  %8 = alloca [2 x i32], align 4
  store i32 1124007936, ptr %0, align 8, !tbaa !43
  %9 = getelementptr inbounds nuw i8, ptr %0, i64 4
  %10 = getelementptr inbounds nuw i8, ptr %0, i64 8
  %11 = getelementptr inbounds nuw i8, ptr %0, i64 24
  tail call void @llvm.memset.p0.i64(ptr noundef nonnull align 4 dereferenceable(20) %9, i8 0, i64 20, i1 false)
  store i32 %5, ptr %11, align 8, !tbaa !50
  %12 = getelementptr inbounds nuw i8, ptr %0, i64 32
  %13 = getelementptr inbounds nuw i8, ptr %0, i64 48
  tail call void @llvm.memset.p0.i64(ptr noundef nonnull align 8 dereferenceable(16) %12, i8 0, i64 16, i1 false)
  store ptr %10, ptr %13, align 8, !tbaa !51
  %14 = getelementptr inbounds nuw i8, ptr %0, i64 56
  %15 = getelementptr inbounds nuw i8, ptr %0, i64 64
  store ptr %15, ptr %14, align 8, !tbaa !52
  tail call void @llvm.memset.p0.i64(ptr noundef nonnull align 8 dereferenceable(16) %15, i8 0, i64 16, i1 false)
  call void @llvm.lifetime.start.p0(i64 8, ptr nonnull %8) #25
  store i32 %1, ptr %8, align 4, !tbaa !28
  %16 = getelementptr inbounds nuw i8, ptr %8, i64 4
  store i32 %2, ptr %16, align 4, !tbaa !28
  call void @_ZN2cv4UMat6createEiPKiiNS_14UMatUsageFlagsE(ptr noundef nonnull align 8 dereferenceable(80) %0, i32 noundef 2, ptr noundef nonnull %8, i32 noundef %3, i32 noundef 0)
  call void @llvm.lifetime.end.p0(i64 8, ptr nonnull %8) #25
  call void @llvm.lifetime.start.p0(i64 24, ptr nonnull %7) #25
  %17 = getelementptr inbounds nuw i8, ptr %7, i64 16
  store i32 -1056833530, ptr %7, align 8, !tbaa !53
  %18 = getelementptr inbounds nuw i8, ptr %7, i64 8
  store ptr %4, ptr %18, align 8, !tbaa !56
  store i64 17179869185, ptr %17, align 8
  %19 = call noundef nonnull align 8 dereferenceable(24) ptr @_ZN2cv7noArrayEv()
  %20 = call noundef nonnull align 8 dereferenceable(80) ptr @_ZN2cv4UMat5setToERKNS_11_InputArrayES3_(ptr noundef nonnull align 8 dereferenceable(80) %0, ptr noundef nonnull align 8 dereferenceable(24) %7, ptr noundef nonnull align 8 dereferenceable(24) %19)
  call void @llvm.lifetime.end.p0(i64 24, ptr nonnull %7) #25
  ret void
}